; Function Attrs: nounwind uwtable
define ptr @l___private_Lean_Data_FuzzyMatching_0__Lean_FuzzyMatching_fuzzyMatchCore_matchResult___lambda__4(ptr noundef %0, ptr noundef %1, ptr noundef readonly captures(none) %2, ptr noundef readonly captures(none) %3, ptr noundef %4, ptr noundef %5, ptr readnone captures(none) %6) local_unnamed_addr #0 {
lean_dec.exit40:
  %7 = getelementptr i8, ptr %2, i64 24
  %.val53 = load i64, ptr %7, align 8, !tbaa !13
  %8 = and i64 %.val53, 9223372036854775807
  %9 = icmp eq i64 %8, 0
  %10 = shl i64 %.val53, 1
  %11 = add i64 %10, -1
  %12 = inttoptr i64 %11 to ptr
  %.1.i35 = select i1 %9, ptr inttoptr (i64 1 to ptr), ptr %12
  %13 = ptrtoint ptr %1 to i64
  %14 = and i64 %13, 1
  %.not = icmp eq i64 %14, 0
  br i1 %.not, label %lean_dec.exit39, label %15, !prof !18

15:                                               ; preds = %lean_dec.exit40
  %16 = icmp eq ptr %1, %.1.i35
  br i1 %16, label %lean_dec.exit38, label %lean_dec.exit

lean_dec.exit39:                                  ; preds = %lean_dec.exit40
  %17 = tail call zeroext i1 @lean_nat_big_eq(ptr noundef %1, ptr noundef nonnull %.1.i35) #7
  br i1 %17, label %lean_dec.exit38, label %lean_dec.exit

lean_dec.exit38:                                  ; preds = %15, %lean_dec.exit39
  %18 = getelementptr i8, ptr %3, i64 24
  %.val = load i64, ptr %18, align 8, !tbaa !13
  %19 = and i64 %.val, 9223372036854775807
  %20 = icmp eq i64 %19, 0
  %21 = shl i64 %.val, 1
  %22 = add i64 %21, -1
  %23 = inttoptr i64 %22 to ptr
  %.1.i = select i1 %20, ptr inttoptr (i64 1 to ptr), ptr %23
  %24 = ptrtoint ptr %4 to i64
  %25 = and i64 %24, 1
  %.not65 = icmp eq i64 %25, 0
  br i1 %.not65, label %lean_dec.exit37, label %26, !prof !18

26:                                               ; preds = %lean_dec.exit38
  %27 = icmp eq ptr %4, %.1.i
  br i1 %27, label %29, label %lean_dec.exit

lean_dec.exit37:                                  ; preds = %lean_dec.exit38
  %28 = tail call zeroext i1 @lean_nat_big_eq(ptr noundef %4, ptr noundef nonnull %.1.i) #7
  br i1 %28, label %29, label %lean_dec.exit

29:                                               ; preds = %26, %lean_dec.exit37
  %30 = load ptr, ptr @l___private_Lean_Data_FuzzyMatching_0__Lean_FuzzyMatching_fuzzyMatchCore_matchResult___lambda__4___closed__1, align 8, !tbaa !11
  %31 = ptrtoint ptr %5 to i64
  %32 = and i64 %31, 1
  %.not.i54 = icmp eq i64 %32, 0
  br i1 %.not.i54, label %52, label %33, !prof !4

33:                                               ; preds = %29
  %34 = ptrtoint ptr %30 to i64
  %35 = and i64 %34, 1
  %.not7.i = icmp eq i64 %35, 0
  br i1 %.not7.i, label %lean_int_add.exit.thread59, label %37, !prof !4

lean_int_add.exit.thread59:                       ; preds = %33
  %36 = tail call ptr @lean_int_big_add(ptr noundef %5, ptr noundef %30) #7
  br label %lean_dec.exit

37:                                               ; preds = %33
  %38 = shl i64 %31, 31
  %39 = ashr i64 %38, 32
  %40 = shl i64 %34, 31
  %41 = ashr i64 %40, 32
  %42 = add nsw i64 %41, %39
  %43 = add nsw i64 %42, 2147483648
  %44 = icmp ult i64 %43, 4294967296
  br i1 %44, label %45, label %50, !prof !10

45:                                               ; preds = %37
  %46 = shl nsw i64 %42, 1
  %47 = and i64 %46, 8589934590
  %48 = or disjoint i64 %47, 1
  %49 = inttoptr i64 %48 to ptr
  br label %lean_dec.exit

50:                                               ; preds = %37
  %51 = tail call ptr @lean_big_int64_to_int(i64 noundef range(i64 -4611686016279904256, 4611686018427387905) %42) #7
  br label %lean_dec.exit

52:                                               ; preds = %29
  %53 = tail call ptr @lean_int_big_add(ptr noundef %5, ptr noundef %30) #7
  %54 = load i32, ptr %5, align 4, !tbaa !5
  %55 = icmp sgt i32 %54, 1
  br i1 %55, label %56, label %58, !prof !10

56:                                               ; preds = %52
  %57 = add nsw i32 %54, -1
  store i32 %57, ptr %5, align 4, !tbaa !5
  br label %lean_dec.exit

58:                                               ; preds = %52
  %.not.i47 = icmp eq i32 %54, 0
  br i1 %.not.i47, label %lean_dec.exit, label %59

59:                                               ; preds = %58
  tail call void @lean_dec_ref_cold(ptr noundef nonnull %5) #7
  br label %lean_dec.exit

lean_dec.exit:                                    ; preds = %lean_int_add.exit.thread59, %56, %58, %59, %45, %50, %lean_dec.exit37, %26, %lean_dec.exit39, %15
  %.sink = phi ptr [ %5, %15 ], [ %5, %lean_dec.exit39 ], [ %5, %26 ], [ %5, %lean_dec.exit37 ], [ %36, %lean_int_add.exit.thread59 ], [ %53, %56 ], [ %53, %58 ], [ %53, %59 ], [ %51, %50 ], [ %49, %45 ]
  %60 = tail call ptr @l___private_Lean_Data_FuzzyMatching_0__Lean_FuzzyMatching_fuzzyMatchCore_matchResult___lambda__3(ptr noundef %0, ptr noundef %1, ptr noundef %.sink, ptr nonnull poison)
  ret ptr %60
}